; Function Attrs: nofree norecurse nosync nounwind memory(argmem: read) uwtable
define i32 @GetCodepointCount(ptr noundef readonly captures(none) %0) local_unnamed_addr #22 {
  %2 = load i8, ptr %0, align 1
  %.not9 = icmp eq i8 %2, 0
  br i1 %.not9, label %._crit_edge, label %.lr.ph

.lr.ph:                                           ; preds = %1, %GetCodepointNext.exit
  %3 = phi i8 [ %26, %GetCodepointNext.exit ], [ %2, %1 ]
  %.011 = phi ptr [ %24, %GetCodepointNext.exit ], [ %0, %1 ]
  %.0510 = phi i32 [ %25, %GetCodepointNext.exit ], [ 0, %1 ]
  %4 = zext i8 %3 to i32
  %5 = and i32 %4, 248
  %6 = icmp eq i32 %5, 240
  br i1 %6, label %7, label %13

7:                                                ; preds = %.lr.ph
  %8 = getelementptr inbounds nuw i8, ptr %.011, i64 1
  %9 = load i8, ptr %8, align 1
  %.not33.i = icmp slt i8 %9, -64
  br i1 %.not33.i, label %10, label %GetCodepointNext.exit

10:                                               ; preds = %7
  %11 = getelementptr inbounds nuw i8, ptr %.011, i64 2
  %12 = load i8, ptr %11, align 1
  %.not34.i = icmp slt i8 %12, -64
  br i1 %.not34.i, label %GetCodepointNext.exit.sink.split, label %GetCodepointNext.exit

13:                                               ; preds = %.lr.ph
  %14 = and i32 %4, 240
  %15 = icmp eq i32 %14, 224
  br i1 %15, label %16, label %19

16:                                               ; preds = %13
  %17 = getelementptr inbounds nuw i8, ptr %.011, i64 1
  %18 = load i8, ptr %17, align 1
  %.not31.i = icmp slt i8 %18, -64
  br i1 %.not31.i, label %GetCodepointNext.exit.sink.split, label %GetCodepointNext.exit

19:                                               ; preds = %13
  %20 = and i32 %4, 224
  %21 = icmp eq i32 %20, 192
  br i1 %21, label %GetCodepointNext.exit.sink.split, label %GetCodepointNext.exit

GetCodepointNext.exit.sink.split:                 ; preds = %19, %16, %10
  %.sink14 = phi i64 [ 3, %10 ], [ 2, %16 ], [ 1, %19 ]
  %.sink = phi i64 [ 4, %10 ], [ 3, %16 ], [ 2, %19 ]
  %22 = getelementptr inbounds nuw i8, ptr %.011, i64 %.sink14
  %23 = load i8, ptr %22, align 1
  %.not.i = icmp slt i8 %23, -64
  %spec.select8 = select i1 %.not.i, i64 %.sink, i64 1
  br label %GetCodepointNext.exit

GetCodepointNext.exit:                            ; preds = %GetCodepointNext.exit.sink.split, %19, %7, %10, %16
  %.06 = phi i64 [ 1, %10 ], [ 1, %7 ], [ 1, %16 ], [ 1, %19 ], [ %spec.select8, %GetCodepointNext.exit.sink.split ]
  %24 = getelementptr inbounds nuw i8, ptr %.011, i64 %.06
  %25 = add i32 %.0510, 1
  %26 = load i8, ptr %24, align 1
  %.not = icmp eq i8 %26, 0
  br i1 %.not, label %._crit_edge, label %.lr.ph

._crit_edge:                                      ; preds = %GetCodepointNext.exit, %1
  %.05.lcssa = phi i32 [ 0, %1 ], [ %25, %GetCodepointNext.exit ]
  ret i32 %.05.lcssa
}